target datalayout = "e-m:e-p270:32:32-p271:32:32-p272:64:64-i64:64-i128:128-f80:128-n8:16:32:64-S128"
target triple = "x86_64-pc-linux-gnu"

%struct.GENERAL_NAME_st = type { i32, %union.anon }
%union.anon = type { ptr }
%struct.v3_ext_ctx = type { i32, ptr, ptr, ptr, ptr, ptr, ptr, ptr }

@.str.15 = private unnamed_addr constant [32 x i8] c"../openssl/crypto/x509/v3_san.c\00", align 1
@__func__.copy_email = private unnamed_addr constant [11 x i8] c"copy_email\00", align 1

; Function Attrs: inlinehint nounwind uwtable
define internal ptr @ossl_check_GENERAL_NAME_type(ptr noundef %0) #3 {
  %2 = alloca ptr, align 8
  store ptr %0, ptr %2, align 8, !tbaa !14
  %3 = load ptr, ptr %2, align 8, !tbaa !14
  ret ptr %3
}

; Function Attrs: inlinehint nounwind uwtable
define internal ptr @ossl_check_GENERAL_NAME_sk_type(ptr noundef %0) #3 {
  %2 = alloca ptr, align 8
  store ptr %0, ptr %2, align 8, !tbaa !8
  %3 = load ptr, ptr %2, align 8, !tbaa !8
  ret ptr %3
}

; Function Attrs: nounwind uwtable
define internal i32 @copy_email(ptr noundef %0, ptr noundef %1, i32 noundef %2) #1 {
  %4 = alloca i32, align 4
  %5 = alloca ptr, align 8
  %6 = alloca ptr, align 8
  %7 = alloca i32, align 4
  %8 = alloca ptr, align 8
  %9 = alloca ptr, align 8
  %10 = alloca ptr, align 8
  %11 = alloca ptr, align 8
  %12 = alloca i32, align 4
  %13 = alloca i32, align 4
  store ptr %0, ptr %5, align 8, !tbaa !18
  store ptr %1, ptr %6, align 8, !tbaa !8
  store i32 %2, ptr %7, align 4, !tbaa !12
  call void @llvm.lifetime.start.p0(i64 8, ptr %8) #5
  call void @llvm.lifetime.start.p0(i64 8, ptr %9) #5
  store ptr null, ptr %9, align 8, !tbaa !59
  call void @llvm.lifetime.start.p0(i64 8, ptr %10) #5
  call void @llvm.lifetime.start.p0(i64 8, ptr %11) #5
  store ptr null, ptr %11, align 8, !tbaa !14
  call void @llvm.lifetime.start.p0(i64 4, ptr %12) #5
  store i32 -1, ptr %12, align 4, !tbaa !12
  %14 = load ptr, ptr %5, align 8, !tbaa !18
  %15 = icmp ne ptr %14, null
  br i1 %15, label %16, label %23

16:                                               ; preds = %3
  %17 = load ptr, ptr %5, align 8, !tbaa !18
  %18 = getelementptr inbounds nuw %struct.v3_ext_ctx, ptr %17, i32 0, i32 0
  %19 = load i32, ptr %18, align 8, !tbaa !48
  %20 = and i32 %19, 1
  %21 = icmp ne i32 %20, 0
  br i1 %21, label %22, label %23

22:                                               ; preds = %16
  store i32 1, ptr %4, align 4
  store i32 1, ptr %13, align 4
  br label %100

23:                                               ; preds = %16, %3
  %24 = load ptr, ptr %5, align 8, !tbaa !18
  %25 = icmp eq ptr %24, null
  br i1 %25, label %36, label %26

26:                                               ; preds = %23
  %27 = load ptr, ptr %5, align 8, !tbaa !18
  %28 = getelementptr inbounds nuw %struct.v3_ext_ctx, ptr %27, i32 0, i32 2
  %29 = load ptr, ptr %28, align 8, !tbaa !61
  %30 = icmp eq ptr %29, null
  br i1 %30, label %31, label %37

31:                                               ; preds = %26
  %32 = load ptr, ptr %5, align 8, !tbaa !18
  %33 = getelementptr inbounds nuw %struct.v3_ext_ctx, ptr %32, i32 0, i32 3
  %34 = load ptr, ptr %33, align 8, !tbaa !62
  %35 = icmp eq ptr %34, null
  br i1 %35, label %36, label %37

36:                                               ; preds = %31, %23
  call void @ERR_new()
  call void @ERR_set_debug(ptr noundef @.str.15, i32 noundef 432, ptr noundef @__func__.copy_email)
  call void (i32, i32, ptr, ...) @ERR_set_error(i32 noundef 34, i32 noundef 125, ptr noundef null)
  store i32 0, ptr %4, align 4
  store i32 1, ptr %13, align 4
  br label %100

37:                                               ; preds = %31, %26
  %38 = load ptr, ptr %5, align 8, !tbaa !18
  %39 = getelementptr inbounds nuw %struct.v3_ext_ctx, ptr %38, i32 0, i32 2
  %40 = load ptr, ptr %39, align 8, !tbaa !61
  %41 = icmp ne ptr %40, null
  br i1 %41, label %42, label %47

42:                                               ; preds = %37
  %43 = load ptr, ptr %5, align 8, !tbaa !18
  %44 = getelementptr inbounds nuw %struct.v3_ext_ctx, ptr %43, i32 0, i32 2
  %45 = load ptr, ptr %44, align 8, !tbaa !61
  %46 = call ptr @X509_get_subject_name(ptr noundef %45)
  br label %52

47:                                               ; preds = %37
  %48 = load ptr, ptr %5, align 8, !tbaa !18
  %49 = getelementptr inbounds nuw %struct.v3_ext_ctx, ptr %48, i32 0, i32 3
  %50 = load ptr, ptr %49, align 8, !tbaa !62
  %51 = call ptr @X509_REQ_get_subject_name(ptr noundef %50)
  br label %52

52:                                               ; preds = %47, %42
  %53 = phi ptr [ %46, %42 ], [ %51, %47 ]
  store ptr %53, ptr %8, align 8, !tbaa !46
  br label %54

54:                                               ; preds = %95, %52
  %55 = load ptr, ptr %8, align 8, !tbaa !46
  %56 = load i32, ptr %12, align 4, !tbaa !12
  %57 = call i32 @X509_NAME_get_index_by_NID(ptr noundef %55, i32 noundef 48, i32 noundef %56)
  store i32 %57, ptr %12, align 4, !tbaa !12
  %58 = icmp sge i32 %57, 0
  br i1 %58, label %59, label %96

59:                                               ; preds = %54
  %60 = load ptr, ptr %8, align 8, !tbaa !46
  %61 = load i32, ptr %12, align 4, !tbaa !12
  %62 = call ptr @X509_NAME_get_entry(ptr noundef %60, i32 noundef %61)
  store ptr %62, ptr %10, align 8, !tbaa !63
  %63 = load ptr, ptr %10, align 8, !tbaa !63
  %64 = call ptr @X509_NAME_ENTRY_get_data(ptr noundef %63)
  %65 = call ptr @ASN1_STRING_dup(ptr noundef %64)
  store ptr %65, ptr %9, align 8, !tbaa !59
  %66 = load i32, ptr %7, align 4, !tbaa !12
  %67 = icmp ne i32 %66, 0
  br i1 %67, label %68, label %75

68:                                               ; preds = %59
  %69 = load ptr, ptr %8, align 8, !tbaa !46
  %70 = load i32, ptr %12, align 4, !tbaa !12
  %71 = call ptr @X509_NAME_delete_entry(ptr noundef %69, i32 noundef %70)
  %72 = load ptr, ptr %10, align 8, !tbaa !63
  call void @X509_NAME_ENTRY_free(ptr noundef %72)
  %73 = load i32, ptr %12, align 4, !tbaa !12
  %74 = add nsw i32 %73, -1
  store i32 %74, ptr %12, align 4, !tbaa !12
  br label %75

75:                                               ; preds = %68, %59
  %76 = load ptr, ptr %9, align 8, !tbaa !59
  %77 = icmp eq ptr %76, null
  br i1 %77, label %81, label %78

78:                                               ; preds = %75
  %79 = call ptr @GENERAL_NAME_new()
  store ptr %79, ptr %11, align 8, !tbaa !14
  %80 = icmp eq ptr %79, null
  br i1 %80, label %81, label %82

81:                                               ; preds = %78, %75
  call void @ERR_new()
  call void @ERR_set_debug(ptr noundef @.str.15, i32 noundef 451, ptr noundef @__func__.copy_email)
  call void (i32, i32, ptr, ...) @ERR_set_error(i32 noundef 34, i32 noundef 524301, ptr noundef null)
  br label %97

82:                                               ; preds = %78
  %83 = load ptr, ptr %9, align 8, !tbaa !59
  %84 = load ptr, ptr %11, align 8, !tbaa !14
  %85 = getelementptr inbounds nuw %struct.GENERAL_NAME_st, ptr %84, i32 0, i32 1
  store ptr %83, ptr %85, align 8, !tbaa !29
  store ptr null, ptr %9, align 8, !tbaa !59
  %86 = load ptr, ptr %11, align 8, !tbaa !14
  %87 = getelementptr inbounds nuw %struct.GENERAL_NAME_st, ptr %86, i32 0, i32 0
  store i32 1, ptr %87, align 8, !tbaa !27
  %88 = load ptr, ptr %6, align 8, !tbaa !8
  %89 = call ptr @ossl_check_GENERAL_NAME_sk_type(ptr noundef %88)
  %90 = load ptr, ptr %11, align 8, !tbaa !14
  %91 = call ptr @ossl_check_GENERAL_NAME_type(ptr noundef %90)
  %92 = call i32 @OPENSSL_sk_push(ptr noundef %89, ptr noundef %91)
  %93 = icmp ne i32 %92, 0
  br i1 %93, label %95, label %94

94:                                               ; preds = %82
  call void @ERR_new()
  call void @ERR_set_debug(ptr noundef @.str.15, i32 noundef 458, ptr noundef @__func__.copy_email)
  call void (i32, i32, ptr, ...) @ERR_set_error(i32 noundef 34, i32 noundef 524303, ptr noundef null)
  br label %97

95:                                               ; preds = %82
  store ptr null, ptr %11, align 8, !tbaa !14
  br label %54, !llvm.loop !65

96:                                               ; preds = %54
  store i32 1, ptr %4, align 4
  store i32 1, ptr %13, align 4
  br label %100

97:                                               ; preds = %94, %81
  %98 = load ptr, ptr %11, align 8, !tbaa !14
  call void @GENERAL_NAME_free(ptr noundef %98)
  %99 = load ptr, ptr %9, align 8, !tbaa !59
  call void @ASN1_IA5STRING_free(ptr noundef %99)
  store i32 0, ptr %4, align 4
  store i32 1, ptr %13, align 4
  br label %100

100:                                              ; preds = %97, %96, %36, %22
  call void @llvm.lifetime.end.p0(i64 4, ptr %12) #5
  call void @llvm.lifetime.end.p0(i64 8, ptr %11) #5
  call void @llvm.lifetime.end.p0(i64 8, ptr %10) #5
  call void @llvm.lifetime.end.p0(i64 8, ptr %9) #5
  call void @llvm.lifetime.end.p0(i64 8, ptr %8) #5
  %101 = load i32, ptr %4, align 4
  ret i32 %101
}