; Function Attrs: nounwind uwtable
define internal fastcc range(i32 0, 2) i32 @copy_email(ptr noundef readonly captures(address_is_null) %0, ptr noundef nonnull %1, i32 noundef range(i32 0, 2) %2) unnamed_addr #1 {
  %cond = icmp eq ptr %0, null
  br i1 %cond, label %15, label %4

4:                                                ; preds = %3
  %5 = load i32, ptr %0, align 8, !tbaa !14
  %6 = and i32 %5, 1
  %.not37 = icmp eq i32 %6, 0
  br i1 %.not37, label %7, label %.loopexit

7:                                                ; preds = %4
  %8 = getelementptr inbounds nuw i8, ptr %0, i64 16
  %9 = load ptr, ptr %8, align 8, !tbaa !41
  %10 = icmp eq ptr %9, null
  br i1 %10, label %11, label %16

11:                                               ; preds = %7
  %12 = getelementptr inbounds nuw i8, ptr %0, i64 24
  %13 = load ptr, ptr %12, align 8, !tbaa !42
  %14 = icmp eq ptr %13, null
  br i1 %14, label %15, label %18

15:                                               ; preds = %3, %11
  tail call void @ERR_new() #4
  tail call void @ERR_set_debug(ptr noundef nonnull @.str.15, i32 noundef 432, ptr noundef nonnull @__func__.copy_email) #4
  tail call void (i32, i32, ptr, ...) @ERR_set_error(i32 noundef 34, i32 noundef 125, ptr noundef null) #4
  br label %.loopexit

16:                                               ; preds = %7
  %17 = tail call ptr @X509_get_subject_name(ptr noundef nonnull %9) #4
  br label %20

18:                                               ; preds = %11
  %19 = tail call ptr @X509_REQ_get_subject_name(ptr noundef nonnull %13) #4
  br label %20

20:                                               ; preds = %18, %16
  %21 = phi ptr [ %17, %16 ], [ %19, %18 ]
  %.not39 = icmp eq i32 %2, 0
  br i1 %.not39, label %.split.us, label %.split

.split.us:                                        ; preds = %20, %32
  %.0.us = phi i32 [ %22, %32 ], [ -1, %20 ]
  %22 = tail call i32 @X509_NAME_get_index_by_NID(ptr noundef %21, i32 noundef 48, i32 noundef %.0.us) #4
  %23 = icmp sgt i32 %22, -1
  br i1 %23, label %24, label %.loopexit

24:                                               ; preds = %.split.us
  %25 = tail call ptr @X509_NAME_get_entry(ptr noundef %21, i32 noundef %22) #4
  %26 = tail call ptr @X509_NAME_ENTRY_get_data(ptr noundef %25) #4
  %27 = tail call ptr @ASN1_STRING_dup(ptr noundef %26) #4
  %28 = icmp eq ptr %27, null
  br i1 %28, label %.split44.us, label %29

29:                                               ; preds = %24
  %30 = tail call ptr @GENERAL_NAME_new() #4
  %31 = icmp eq ptr %30, null
  br i1 %31, label %.split44.us, label %32

32:                                               ; preds = %29
  %33 = getelementptr inbounds nuw i8, ptr %30, i64 8
  store ptr %27, ptr %33, align 8, !tbaa !28
  store i32 1, ptr %30, align 8, !tbaa !26
  %34 = tail call i32 @OPENSSL_sk_push(ptr noundef nonnull %1, ptr noundef nonnull %30) #4
  %.not40.us = icmp eq i32 %34, 0
  br i1 %.not40.us, label %.split44.us, label %.split.us, !llvm.loop !43

.split:                                           ; preds = %20, %47
  %.0 = phi i32 [ %42, %47 ], [ -1, %20 ]
  %35 = tail call i32 @X509_NAME_get_index_by_NID(ptr noundef %21, i32 noundef 48, i32 noundef %.0) #4
  %36 = icmp sgt i32 %35, -1
  br i1 %36, label %37, label %.loopexit

37:                                               ; preds = %.split
  %38 = tail call ptr @X509_NAME_get_entry(ptr noundef %21, i32 noundef %35) #4
  %39 = tail call ptr @X509_NAME_ENTRY_get_data(ptr noundef %38) #4
  %40 = tail call ptr @ASN1_STRING_dup(ptr noundef %39) #4
  %41 = tail call ptr @X509_NAME_delete_entry(ptr noundef %21, i32 noundef %35) #4
  tail call void @X509_NAME_ENTRY_free(ptr noundef %38) #4
  %42 = add nsw i32 %35, -1
  %43 = icmp eq ptr %40, null
  br i1 %43, label %.split44.us, label %44

44:                                               ; preds = %37
  %45 = tail call ptr @GENERAL_NAME_new() #4
  %46 = icmp eq ptr %45, null
  br i1 %46, label %.split44.us, label %47

47:                                               ; preds = %44
  %48 = getelementptr inbounds nuw i8, ptr %45, i64 8
  store ptr %40, ptr %48, align 8, !tbaa !28
  store i32 1, ptr %45, align 8, !tbaa !26
  %49 = tail call i32 @OPENSSL_sk_push(ptr noundef nonnull %1, ptr noundef nonnull %45) #4
  %.not40 = icmp eq i32 %49, 0
  br i1 %.not40, label %.split44.us, label %.split, !llvm.loop !43

.split44.us:                                      ; preds = %47, %44, %37, %32, %29, %24
  %.sink61 = phi i32 [ 451, %24 ], [ 451, %29 ], [ 458, %32 ], [ 451, %37 ], [ 451, %44 ], [ 458, %47 ]
  %.sink = phi i32 [ 524301, %24 ], [ 524301, %29 ], [ 524303, %32 ], [ 524301, %37 ], [ 524301, %44 ], [ 524303, %47 ]
  %.029 = phi ptr [ null, %24 ], [ %27, %29 ], [ null, %32 ], [ null, %37 ], [ %40, %44 ], [ null, %47 ]
  %.2 = phi ptr [ null, %24 ], [ null, %29 ], [ %30, %32 ], [ null, %37 ], [ null, %44 ], [ %45, %47 ]
  tail call void @ERR_new() #4
  tail call void @ERR_set_debug(ptr noundef nonnull @.str.15, i32 noundef %.sink61, ptr noundef nonnull @__func__.copy_email) #4
  tail call void (i32, i32, ptr, ...) @ERR_set_error(i32 noundef 34, i32 noundef %.sink, ptr noundef null) #4
  tail call void @GENERAL_NAME_free(ptr noundef %.2) #4
  tail call void @ASN1_IA5STRING_free(ptr noundef %.029) #4
  br label %.loopexit

.loopexit:                                        ; preds = %.split, %.split.us, %4, %.split44.us, %15
  %.028 = phi i32 [ 0, %15 ], [ 0, %.split44.us ], [ 1, %4 ], [ 1, %.split.us ], [ 1, %.split ]
  ret i32 %.028
}